(dp0
S'cookies'
p1
(dp2
S'webwx_data_ticket'
p3
S'gSePHJCXAn9m7+Mb7wCVpBkV'
p4
sS'wxuin'
p5
S'3161507043'
p6
sS'webwxuvid'
p7
S'55260a738ab71b25a2d0f937c569937e5a49f5470e8cee4d64b0aa3009baf2540b1e269cbdac5f939b9ff82f0a16fdec'
p8
sS'webwx_auth_ticket'
p9
S'CIsBELaHtLIPGoAB6DwIc6txgs7I2HDlXTDs4xcNXmi/3xk6QxFUEj1g4ZhiCFLz78tABAOc9DtBX0E9Jk7i89rSuua3lVz5aYddCUFt8j9moZbNBbLHLxcruI7OcN5cXGLftIx3rN5jPvoSivLnT2YZb4MzAw26hkk1vfmWPYd5QQbqB/Vh0f+nF04='
p10
sS'wxloadtime'
p11
S'1520763756'
p12
sS'wxsid'
p13
S'x1C+i4C+kYqkDBZl'
p14
sS'mm_lang'
p15
S'zh_CN'
p16
ssS'version'
p17
S'1.3.10'
p18
sS'storage'
p19
(dp20
S'userName'
p21
V@f51519ab6e115c4b6f90298fac9245a6b8082018c5bca24c217bf7488cc377c4
p22
sS'lastInputUserName'
p23
NsS'memberList'
p24
ccopy_reg
_reconstructor
p25
(citchat.storage.templates
ContactList
p26
c__builtin__
list
p27
(lp28
g25
(citchat.storage.templates
User
p29
c__builtin__
dict
p30
(dp31
S'UserName'
p32
g22
sS'City'
p33
S''
p34
sS'DisplayName'
p35
g34
sS'UniFriend'
p36
I0
sS'OwnerUin'
p37
I0
sS'MemberList'
p38
g25
(g26
g27
(lp39
tp40
Rp41
I1
bsS'PYQuanPin'
p42
V
p43
sS'RemarkPYInitial'
p44
g43
sS'Uin'
p45
I3161507043
sS'AppAccountFlag'
p46
I0
sS'VerifyFlag'
p47
I0
sS'Province'
p48
g34
sS'KeyWord'
p49
g34
sS'RemarkName'
p50
g43
sS'PYInitial'
p51
g43
sS'ChatRoomId'
p52
I0
sS'HideInputBarFlag'
p53
I0
sVHeadImgFlag
p54
I1
sS'EncryChatRoomId'
p55
g34
sS'AttrStatus'
p56
I0
sS'SnsFlag'
p57
I1
sS'MemberCount'
p58
I0
sVWebWxPluginSwitch
p59
I0
sS'Alias'
p60
g34
sS'Signature'
p61
V\u7f18\u5206\u5929\u6ce8\u5b9a\uff0c\u540d\u5b57\u770b\u4f60\u7684
p62
sS'ContactFlag'
p63
I0
sS'NickName'
p64
V\u4e03\u5915\u7f18\u540d
p65
sS'RemarkPYQuanPin'
p66
g43
sS'HeadImgUrl'
p67
V/cgi-bin/mmwebwx-bin/webwxgeticon?seq=1720875568&username=@f51519ab6e115c4b6f90298fac9245a6b8082018c5bca24c217bf7488cc377c4&skey=@crypt_ac49e831_a41f3b5e7e669633b154171b54ba069d
p68
sS'Sex'
p69
I0
sS'StarFriend'
p70
I0
sS'Statues'
p71
I0
stp72
Rp73
I1
bag25
(g29
g30
(dp74
VUserName
p75
V@b0a8c21d6533b41ffd9ad2f0bdb8a541
p76
sVCity
p77
V\u8386\u7530
p78
sVSnsFlag
p79
I17
sVDisplayName
p80
g43
sVUniFriend
p81
I0
sVMemberCount
p82
I0
sVOwnerUin
p83
I0
sVMemberList
p84
g41
sVAlias
p85
g43
sVPYQuanPin
p86
Vbuzao
p87
sVSignature
p88
V\u9762\u5bf9\u8fd9\u94c1\u94ee\u94ee\u7684\u73b0\u5b9e\uff0c\u6211\u60f3\u6211\u4e5f\u53ea\u80fd\u5475\u5475\u4e86\u3002
p89
sVRemarkPYInitial
p90
g43
sVContactFlag
p91
I3
sVUin
p92
I0
sVNickName
p93
V\u4e0d\u65e9
p94
sVAppAccountFlag
p95
I0
sVVerifyFlag
p96
I0
sVRemarkPYQuanPin
p97
g43
sVHeadImgUrl
p98
V/cgi-bin/mmwebwx-bin/webwxgeticon?seq=609160047&username=@b0a8c21d6533b41ffd9ad2f0bdb8a541&skey=@crypt_ac49e831_a41f3b5e7e669633b154171b54ba069d
p99
sVKeyWord
p100
Vche
p101
sVProvince
p102
V\u798f\u5efa
p103
sVPYInitial
p104
VBZ
p105
sVRemarkName
p106
g43
sVIsOwner
p107
I0
sVSex
p108
I1
sVStarFriend
p109
I0
sVHideInputBarFlag
p110
I0
sVChatRoomId
p111
I0
sVEncryChatRoomId
p112
g43
sVAttrStatus
p113
I104483
sVStatues
p114
I0
stp115
Rp116
I1
bag25
(g29
g30
(dp117
VUserName
p118
V@0a4423b1bf371f357659652d7a3f6af9cb22dbef1543f0bec788d06b5484f8ab
p119
sVCity
p120
V\u53a6\u95e8
p121
sVSnsFlag
p122
I17
sVDisplayName
p123
g43
sVUniFriend
p124
I0
sVMemberCount
p125
I0
sVOwnerUin
p126
I0
sVMemberList
p127
g41
sVAlias
p128
g43
sVPYQuanPin
p129
V?
p130
sVSignature
p131
V\u5f97\u4e0d\u5230\u4e0d\u53ef\u6015   \u5b88\u4e0d\u4f4f\u624d\u662f\u4e2a\u7b11\u8bdd
p132
sVRemarkPYInitial
p133
g43
sVContactFlag
p134
I3
sVUin
p135
I0
sVNickName
p136
V\U0001f479
p137
sVAppAccountFlag
p138
I0
sVVerifyFlag
p139
I0
sVRemarkPYQuanPin
p140
g43
sVHeadImgUrl
p141
V/cgi-bin/mmwebwx-bin/webwxgeticon?seq=609160098&username=@0a4423b1bf371f357659652d7a3f6af9cb22dbef1543f0bec788d06b5484f8ab&skey=@crypt_ac49e831_a41f3b5e7e669633b154171b54ba069d
p142
sVKeyWord
p143
g43
sVProvince
p144
V\u798f\u5efa
p145
sVPYInitial
p146
g130
sVRemarkName
p147
g43
sVIsOwner
p148
I0
sVSex
p149
I1
sVStarFriend
p150
I0
sVHideInputBarFlag
p151
I0
sVChatRoomId
p152
I0
sVEncryChatRoomId
p153
g43
sVAttrStatus
p154
I241765
sVStatues
p155
I0
stp156
Rp157
I1
bag25
(g29
g30
(dp158
VUserName
p159
V@86dcb132e003ac8f2792e8e6033c73b2
p160
sVCity
p161
V\u6f33\u5dde
p162
sVSnsFlag
p163
I17
sVDisplayName
p164
g43
sVUniFriend
p165
I0
sVMemberCount
p166
I0
sVOwnerUin
p167
I0
sVMemberList
p168
g41
sVAlias
p169
g43
sVPYQuanPin
p170
VMrDior
p171
sVSignature
p172
V\u62d9\u7537\u58eb\u5fc5\u6709\u6240\u561a
p173
sVRemarkPYInitial
p174
g43
sVContactFlag
p175
I3
sVUin
p176
I0
sVNickName
p177
VMr.Dior
p178
sVAppAccountFlag
p179
I0
sVVerifyFlag
p180
I0
sVRemarkPYQuanPin
p181
g43
sVHeadImgUrl
p182
V/cgi-bin/mmwebwx-bin/webwxgeticon?seq=601560488&username=@86dcb132e003ac8f2792e8e6033c73b2&skey=@crypt_ac49e831_a41f3b5e7e669633b154171b54ba069d
p183
sVKeyWord
p184
Vxud
p185
sVProvince
p186
V\u798f\u5efa
p187
sVPYInitial
p188
VMRDIOR
p189
sVRemarkName
p190
g43
sVIsOwner
p191
I0
sVSex
p192
I1
sVStarFriend
p193
I0
sVHideInputBarFlag
p194
I0
sVChatRoomId
p195
I0
sVEncryChatRoomId
p196
g43
sVAttrStatus
p197
I17010791
sVStatues
p198
I0
stp199
Rp200
I1
batp201
Rp202
I1
bsS'chatroomList'
p203
g25
(g26
g27
(lp204
tp205
Rp206
I1
bsS'nickName'
p207
g65
sS'mpList'
p208
g25
(g26
g27
(lp209
g25
(citchat.storage.templates
MassivePlatform
p210
g30
(dp211
VUserName
p212
V@9678180855b3b8309d31ff81ca3343ed
p213
sVCity
p214
V\u5e7f\u5dde
p215
sVSnsFlag
p216
I0
sVDisplayName
p217
g43
sVUniFriend
p218
I0
sVMemberCount
p219
I0
sVOwnerUin
p220
I0
sVMemberList
p221
g41
sVAlias
p222
g43
sVPYQuanPin
p223
Vweixinyundong
p224
sVSignature
p225
V\u4e5f\u8bb8\u4f60\u65e9\u5df2\u4e60\u60ef\u4e00\u4e2a\u4eba\u8fd0\u52a8\u7684\u5b64\u72ec\uff0c\u5374\u4e5f\u5076\u5c14\u6e34\u671b\u5f97\u5230\u8d5e\u8d4f\u3002\u52a0\u5165\u5fae\u4fe1\u8fd0\u52a8\uff0c\u548c\u670b\u53cb\u4e00\u8d77\u70b9\u8d5e\u4e92\u52a8\u3001\u62a2\u5360\u5c01\u9762\uff0c\u5206\u4eab\u8fd0\u52a8\u7684\u5feb\u4e50\u3002
p226
sVRemarkPYInitial
p227
g43
sVContactFlag
p228
I3
sVUin
p229
I0
sVNickName
p230
V\u5fae\u4fe1\u8fd0\u52a8
p231
sVAppAccountFlag
p232
I0
sVVerifyFlag
p233
I24
sVRemarkPYQuanPin
p234
g43
sVHeadImgUrl
p235
V/cgi-bin/mmwebwx-bin/webwxgeticon?seq=606640013&username=@9678180855b3b8309d31ff81ca3343ed&skey=@crypt_ac49e831_a41f3b5e7e669633b154171b54ba069d
p236
sVKeyWord
p237
Vgh_
p238
sVProvince
p239
V\u5e7f\u4e1c
p240
sVPYInitial
p241
VWXYD
p242
sVRemarkName
p243
g43
sVIsOwner
p244
I0
sVSex
p245
I0
sVStarFriend
p246
I0
sVHideInputBarFlag
p247
I0
sVChatRoomId
p248
I0
sVEncryChatRoomId
p249
g43
sVAttrStatus
p250
I0
sVStatues
p251
I0
stp252
Rp253
I1
batp254
Rp255
I1
bssS'loginInfo'
p256
(dp257
S'SyncKey'
p258
(dp259
VCount
p260
I4
sVList
p261
(lp262
(dp263
VVal
p264
I611400001
sVKey
p265
I1
sa(dp266
VVal
p267
I611400005
sVKey
p268
I2
sa(dp269
VVal
p270
I611400001
sVKey
p271
I3
sa(dp272
VVal
p273
I1520756522
sVKey
p274
I1000
sassS'syncUrl'
p275
S'https://webpush.wx2.qq.com/cgi-bin/mmwebwx-bin'
p276
sS'skey'
p277
V@crypt_ac49e831_a41f3b5e7e669633b154171b54ba069d
p278
sS'wxuin'
p279
V3161507043
p280
sS'synckey'
p281
S'1_611400001|2_611400005|3_611400001|1000_1520756522'
p282
sS'url'
p283
Vhttps://wx2.qq.com/cgi-bin/mmwebwx-bin
p284
sS'pass_ticket'
p285
VsILlmPalWN%2FdPzfXkOHyHQuqoX4x%2F651hjt1NTX45T8NfRTL%2FZ5EHWno%2FArXvncy
p286
sS'wxsid'
p287
Vx1C+i4C+kYqkDBZl
p288
sS'InviteStartCount'
p289
I40
sS'deviceid'
p290
S'e741270554239706'
p291
sS'fileUrl'
p292
S'https://file.wx2.qq.com/cgi-bin/mmwebwx-bin'
p293
sS'BaseRequest'
p294
(dp295
g45
g280
sS'Skey'
p296
g278
sS'DeviceID'
p297
g286
sS'Sid'
p298
g288
ssS'User'
p299
g25
(g29
g30
(dp300
g32
g22
sg33
g34
sg35
g34
sg36
I0
sg38
g41
sg42
g43
sg44
g43
sg69
I0
sg46
I0
sg47
I0
sg48
g34
sg49
g34
sg50
g43
sg51
g43
sg52
I0
sg53
I0
sg54
I1
sg55
g34
sg56
I0
sg59
I0
sg57
I1
sg58
I0
sg37
I0
sg60
g34
sg61
g62
sg63
I0
sg64
g65
sg66
g43
sg67
g68
sg45
I3161507043
sg70
I0
sg71
I0
stp301
Rp302
I1
bss.