(dp0
V\u5981
p1
V6989
p2
sV\u8981
p3
V5010
p4
sV\u6cf0
p5
I4770
sV\u9f85
p6
V8621
p7
sV\u9a87
p8
V2607
p9
sV\u5364
p10
V3417
p11
sV\u670a
p12
V7535
p13
sV\u6883
p14
V7272
p15
sV\u8114
p16
V5785
p17
sV\u9191
p18
V8515
p19
sV\u57d8
p20
V5985
p21
sV\u8297
p22
V6028
p23
sV\u7599
p24
V2477
p25
sV\u9785
p26
V8717
p27
sV\u609b
p28
V6710
p29
sV\u771a
p30
V7782
p31
sV\u539d
p32
V5640
p33
sV\u821c
p34
V4320
p35
sV\u9e9f
p36
V8775
p37
sV\u8d1e
p38
V5374
p39
sV\u7687
p40
V2742
p41
sV\u6126
p42
V6720
p43
sV\u65a9
p44
V5322
p45
sV\u7428
p46
V7191
p47
sV\u60ab
p48
V7708
p49
sV\u572a
p50
V5957
p51
sV\u56af
p52
V6475
p53
sV\u552e
p54
V4259
p55
sV\u9cb3
p56
V8680
p57
sV\u77b5
p58
V7812
p59
sV\u7634
p60
V5346
p61
sV\u9ab7
p62
V8728
p63
sV\u7c38
p64
V8404
p65
sV\u50bb
p66
V4121
p67
sV\u5f3a
p68
V3931
p69
sV\u753e
p70
V7162
p71
sV\u5ce1
p72
V4731
p73
sV\u4f0a
p74
V5033
p75
sV\u7fc5
p76
V1965
p77
sV\u9644
p78
V2429
p79
sV\u82c7
p80
V4613
p81
sV\u5960
p82
V2176
p83
sV\u75c9
p84
V3023
p85
sV\u96cf
p86
V1991
p87
sV\u5e0c
p88
V4703
p89
sV\u79d1
p90
V3138
p91
sV\u9f39
p92
V8790
p93
sV\u6cd3
p94
V6792
p95
sV\u5662
p96
V6462
p97
sV\u8fd5
p98
V6935
p99
sV\u4e54
p100
V3939
p101
sV\u7956
p102
I4626
sV\u87d1
p103
V8315
p104
sV\u4f5a
p105
V5693
p106
sV\u86df
p107
V8252
p108
sV\u855e
p109
V6209
p110
sV\u6ce3
p111
V3892
p112
sV\u6b62
p113
V5425
p114
sV\u810e
p115
V7559
p116
sV\u8093
p117
V7533
p118
sV\u9eef
p119
V8786
p120
sV\u6d6e
p121
V2401
p122
sV\u9e69
p123
V8051
p124
sV\u5ff5
p125
V3678
p126
sV\u8e74
p127
V8577
p128
sV\u8bfd
p129
V2344
p130
sV\u9a7c
p131
V4553
p132
sV\u7eff
p133
V3444
p134
sV\u9880
p135
V8193
p136
sV\u52d6
p137
V5935
p138
sV\u9986
p139
V2561
p140
sV\u9cdd
p141
V8713
p142
sV\u9c88
p143
V8652
p144
sV\u800b
p145
V8183
p146
sV\u9f8a
p147
V8626
p148
sV\u9a8c
p149
I7766
sV\u6ee2
p150
V6862
p151
sV\u5599
p152
V6425
p153
sV\u6f15
p154
V6878
p155
sV\u8e94
p156
V8580
p157
sV\u7519
p158
V6316
p159
sV\u8c98
p160
V8588
p161
sV\u731d
p162
V6607
p163
sV\u989b
p164
V8207
p165
sV\u94c4
p166
V7869
p167
sV\u8921
p168
V8155
p169
sV\u88f1
p170
V8149
p171
sV\u5423
p172
V6336
p173
sV\u5ba2
p174
V3145
p175
sV\u4f25
p176
V5686
p177
sV\u8d29
p178
V2323
p179
sV\u7b9d
p180
V8373
p181
sV\u5fc6
p182
V5068
p183
sV\u6dae
p184
V6844
p185
sV\u7131
p186
V7645
p187
sV\u78b0
p188
V3786
p189
sV\u6735
p190
V2268
p191
sV\u76b4
p192
V8169
p193
sV\u858f
p194
V6218
p195
sV\u6d39
p196
V6801
p197
sV\u5cb8
p198
V1622
p199
sV\u9abc
p200
V8732
p201
sV\u7941
p202
V3878
p203
sV\u68c0
p204
V2876
p205
sV\u9549
p206
V7951
p207
sV\u94c8
p208
V7870
p209
sV\u4fca
p210
V3101
p211
sV\u9b4d
p212
V8745
p213
sV\u5acc
p214
V4751
p215
sV\u5951
p216
V3885
p217
sV\u5bd2
p218
V2614
p219
sV\u89d6
p220
V8591
p221
sV\u9cd8
p222
V8710
p223
sV\u63ce
p224
V6279
p225
sV\u7b5d
p226
V8361
p227
sV\u62dc
p228
V1661
p229
sV\u4e5f
p230
V5018
p231
sV\u75de
p232
V3806
p233
sV\u9161
p234
V8502
p235
sV\u5482
p236
V6338
p237
sV\u667a
p238
V5439
p239
sV\u7765
p240
V7802
p241
sV\u7267
p242
V3633
p243
sV\u9569
p244
V7973
p245
sV\u7ce8
p246
V8461
p247
sV\u886b
p248
V4132
p249
sV\u4fea
p250
V5719
p251
sV\u8e6f
p252
V8576
p253
sV\u65ee
p254
V7424
p255
sV\u68f0
p256
V7302
p257
sV\u75d2
p258
V4987
p259
sV\u8579
p260
V6219
p261
sV\u8d55
p262
V7470
p263
sV\u607b
p264
V6692
p265
sV\u587e
p266
V5951
p267
sV\u70ab
p268
V7637
p269
sV\u867f
p270
V8218
p271
sV\u7583
p272
V7822
p273
sV\u672a
p274
V4620
p275
sV\u7704
p276
V7777
p277
sV\u9985
p278
V4758
p279
sV\u6006
p280
V6675
p281
sV\u6c89
p282
V1933
p283
sV\u960a
p284
V6749
p285
sV\u660e
p286
I9189
sV\u4f8f
p287
V5710
p288
sV\u8c0e
p289
V2749
p290
sV\u6910
p291
V7307
p292
sV\u5212
p293
V2714
p294
sV\u6f14
p295
V4961
p296
sV\u8816
p297
V8322
p298
sV\u9518
p299
V7927
p300
sV\u6d2e
p301
V6812
p302
sV\u9a9d
p303
V7082
p304
sV\u831c
p305
V6071
p306
sV\u641e
p307
V2467
p308
sV\u80a1
p309
V2541
p310
sV\u75a3
p311
V8064
p312
sV\u7ba7
p313
V8370
p314
sV\u9026
p315
V6946
p316
sV\u9ca9
p317
V8673
p318
sV\u59ab
p319
V7003
p320
sV\u9e2a
p321
V8019
p322
sV\u90b3
p323
V5892
p324
sV\u97af
p325
V8721
p326
sV\u54dc
p327
V6366
p328
sV\u5eb5
p329
V6654
p330
sV\u8bb7
p331
V5811
p332
sV6
p333
I3901
sV\u87b5
p334
V8310
p335
sV\u79bb
p336
V3275
p337
sV\u82bd
p338
V4931
p339
sV\u5631
p340
V5486
p341
sV\u58c1
p342
V1758
p343
sV\u75c3
p344
V8071
p345
sV\u5229
p346
I8776
sV\u9f44
p347
V8794
p348
sV\u9ee0
p349
V8779
p350
sV\u84c9
p351
I5330
sV\u5567
p352
V6385
p353
sV\u9536
p354
V7940
p355
sV\u7b4c
p356
V8360
p357
sV\u4fcf
p358
V3946
p359
sV\u5c4e
p360
V4226
p361
sV\u60d1
p362
V2783
p363
sV\u8150
p364
V2415
p365
sV\u65c3
p366
V7625
p367
sV\u6ed5
p368
V7588
p369
sV\u6924
p370
V7301
p371
sV\u5c38
p372
V4212
p373
sV\u54d9
p374
V6364
p375
sV\u9558
p376
V7960
p377
sV\u5b5c
p378
V5546
p379
sV\u80e1
p380
V2690
p381
sV\u8160
p382
V7577
p383
sV\u9ee5
p384
V8784
p385
sV\u5f64
p386
V4514
p387
sV\u87bd
p388
V8314
p389
sV\u79eb
p390
V7988
p391
sV\u53e6
p392
V3377
p393
sV\u7aed
p394
V2963
p395
sV\u736c
p396
V6619
p397
sV\u835c
p398
V6074
p399
sV\u80f1
p400
V7555
p401
sV\u5170
p402
V3228
p403
sV\u56f5
p404
V6480
p405
sV\u8f74
p406
V5465
p407
sV\u5c0f
p408
I3844
sV\u94f9
p409
V7909
p410
sV\u80e5
p411
V8167
p412
sV\u59fb
p413
V5086
p414
sV\u5e7a
p415
V7159
p416
sV\u62fd
p417
V5507
p418
sV\u67ff
p419
V4233
p420
sV\u9503
p421
V7913
p422
sV\u9a82
p423
V3478
p424
sV\u7a51
p425
V8003
p426
sV\u5784
p427
V3402
p428
sV\u556d
p429
V6389
p430
sV\u970f
p431
V8613
p432
sV\u9c8e
p433
V8655
p434
sV\u7292
p435
V7491
p436
sV\u9794
p437
V8720
p438
sV\u5d99
p439
V6555
p440
sV\u6c19
p441
V7515
p442
sV\u8fc5
p443
V4924
p444
sV\u891b
p445
V8158
p446
sV\u87ee
p447
V8321
p448
sV\u7b9c
p449
V8377
p450
sV\u6e44
p451
V6856
p452
sV\u6021
p453
V6689
p454
sV\u5523
p455
V6380
p456
sV\u52a2
p457
V5929
p458
sV\u4e25
p459
V4947
p460
sV\u52c7
p461
V5134
p462
sV\u804a
p463
I3911
sV\u68a6
p464
V3546
p465
sV\u6da8
p466
V5339
p467
sV\u6eaa
p468
V4710
p469
sV\u7bac
p470
V8372
p471
sV\u9f2f
p472
V8789
p473
sV\u9cae
p474
V8676
p475
sV\u8031
p476
V8182
p477
sV\u6d33
p478
V6818
p479
sV\u7635
p480
V8109
p481
sV\u97b4
p482
V8725
p483
sV\u6b37
p484
V7604
p485
sV\u89ef
p486
V8603
p487
sV\u6db8
p488
V2652
p489
sV\u9c9e
p490
V8663
p491
sV\u63bc
p492
V6272
p493
sV\u873f
p494
V8274
p495
sV\u60f4
p496
V6723
p497
sV\u6041
p498
V7705
p499
sV\u79c0
p500
V4867
p501
sV\u6d43
p502
V6804
p503
sV\u9ac2
p504
V8736
p505
sV\u88c6
p506
V8141
p507
sV\u914b
p508
V3985
p509
sV\u524d
p510
V3916
p511
sV\u90ca
p512
V2928
p513
sV\u64ce
p514
V3970
p515
sV\u9553
p516
V7956
p517
sV\u72d2
p518
V6584
p519
sV\u817e
p520
I3450
sV\u75d8
p521
V2227
p522
sV\u914e
p523
V8492
p524
sV\u567b
p525
V6471
p526
sV\u4f5f
p527
V5701
p528
sV\u9cde
p529
V3359
p530
sV\u6861
p531
V7267
p532
sV\u91d1
p533
I5329
sV\u65fa
p534
V4590
p535
sV\u6b67
p536
V3871
p537
sV\u6469
p538
V3606
p539
sV\u8de8
p540
I1838
sV\u516b
p541
V1643
p542
sV\u9eea
p543
V8785
p544
sV\u9cd3
p545
V8706
p546
sV\u4f6f
p547
V4980
p548
sV\u72fc
p549
I9465
sV\u707f
p550
V1851
p551
sV\u95f8
p552
V5302
p553
sV\u9a7d
p554
V7069
p555
sV\u7bfc
p556
V8391
p557
sV\u677f
p558
V1669
p559
sV\u6d85
p560
V3689
p561
sV\u7887
p562
V7754
p563
sV\u8306
p564
V6066
p565
sV\u4f89
p566
V5708
p567
sV\u9a8b
p568
V1950
p569
sV\u950a
p570
V7918
p571
sV\u998d
p572
V6641
p573
sV\u8783
p574
V8306
p575
sV\u6897
p576
V2503
p577
sV\u6885
p578
I983
sV\u781c
p579
V7731
p580
sV\u9c9f
p581
V8664
p582
sV\u5a20
p583
V4179
p584
sV\u9122
p585
V5919
p586
sV\u78a7
p587
V1744
p588
sV\u8b26
p589
V8605
p590
sV\u9e28
p591
V8017
p592
sV\u91ad
p593
V8519
p594
sV\u7230
p595
V7528
p596
sV\u7eb3
p597
V3641
p598
sV\u8dec
p599
V8545
p600
sV\u9edf
p601
V8780
p602
sV\u952c
p603
V7936
p604
sV\u8e35
p605
V8564
p606
sV\u62bb
p607
V6251
p608
sV\u955e
p609
V7963
p610
sV\u783c
p611
V7737
p612
sV\u54bf
p613
V6362
p614
sV\u9f3e
p615
V8793
p616
sV\u50ee
p617
V5755
p618
sV\u7ec3
p619
V3323
p620
sV\u6dc5
p621
V6832
p622
sV\u6444
p623
V4167
p624
sV\u6b46
p625
V7607
p626
sV\u5fc9
p627
V6665
p628
sV\u9acb
p629
V8737
p630
sV\u79cd
p631
V5454
p632
sV\u5537
p633
V6401
p634
sV\u9ccf
p635
V8704
p636
sV\u674e
p637
I6998
sV\u8bd1
p638
V5075
p639
sV\u7b62
p640
V8365
p641
sV\u6c54
p642
V6764
p643
sV\u8db8
p644
V8527
p645
sV\u9e58
p646
V8729
p647
sV\u9e87
p648
V8769
p649
sV\u4e0e
p650
I8671
sV\u84df
p651
V2827
p652
sV\u4f5e
p653
V5690
p654
sV\u83e1
p655
V6153
p656
sV\u4ee3
p657
V2090
p658
sV\u6162
p659
V3493
p660
sV\u65e5
p661
V4053
p662
sV\u50e7
p663
V4114
p664
sV\u5366
p665
V5652
p666
sV\u67e9
p667
V7249
p668
sV\u9aeb
p669
V8756
p670
sV\u5566
p671
V3218
p672
sV\u8bbc
p673
V4347
p674
sV\u53f1
p675
V6319
p676
sV\u7a70
p677
V8006
p678
sV\u9172
p679
V8508
p680
sV\u7c74
p681
V5765
p682
sV\u70f7
p683
V4573
p684
sV\u9095
p685
V7163
p686
sV\u72fb
p687
V6601
p688
sV\u8934
p689
V8160
p690
sV\u94ff
p691
V7912
p692
sV\u877e
p693
V8278
p694
sV\u6a80
p695
V4420
p696
sV\u5e03
p697
V1828
p698
sV\u7597
p699
I6993
sV\u5709
p700
V6486
p701
sV\u9e88
p702
V8770
p703
sV\u810d
p704
V7558
p705
sV\u8c0f
p706
V5841
p707
sV\u7f8e
p708
I6969
sV\u6821
p709
V4803
p710
sV\u9494
p711
V7845
p712
sV\u7817
p713
V7726
p714
sV\u7f19
p715
V7138
p716
sV\u809c
p717
V7532
p718
sV\u679e
p719
V7240
p720
sV\u8e23
p721
V8559
p722
sV\u91a2
p723
V8516
p724
sV\u6167
p725
I7776
sV\u6ca4
p726
V3729
p727
sV\u6027
p728
V4852
p729
sV\u8ba6
p730
V5806
p731
sV\u6784
p732
V2525
p733
sV\u7c9d
p734
V8447
p735
sV\u80c6
p736
V2108
p737
sV\u5f90
p738
V4876
p739
sV\u82b0
p740
V6033
p741
sV\u759f
p742
V3717
p743
sV\u8037
p744
V6239
p745
sV\u5f39
p746
V2115
p747
sV\u9eb8
p748
V8479
p749
sV\u5979
p750
I6789
sV\u9b41
p751
V3193
p752
sV\u9ac0
p753
V8734
p754
sV\u7643
p755
V8110
p756
sV\u8d45
p757
V7464
p758
sV\u9cc4
p759
V8689
p760
sV\u76c8
p761
V5115
p762
sV\u75ca
p763
V4012
p764
sV\u914d
p765
V3768
p766
sV\u80cc
p767
V1719
p768
sV\u9b51
p769
V8746
p770
sV\u6e53
p771
V6852
p772
sV\u6555
p773
V7523
p774
sV\u93d6
p775
V8773
p776
sV\u4f59
p777
I6404
sV\u4ed8
p778
V2422
p779
sV\u9cce
p780
V8703
p781
sV\u7924
p782
V7769
p783
sV\u82e0
p784
V6069
p785
sV\u868b
p786
V8224
p787
sV\u9cca
p788
V8693
p789
sV\u86d1
p790
V8254
p791
sV\u5ce4
p792
V6529
p793
sV\u7be6
p794
V8387
p795
sV\u7f69
p796
V5354
p797
sV\u8dea
p798
V2582
p799
sV\u60ec
p800
V6711
p801
sV\u7fee
p802
V8471
p803
sV\u6371
p804
V6263
p805
sV\u4e73
p806
V4073
p807
sV\u62d2
p808
V3060
p809
sV\u5575
p810
V6403
p811
sV\u8bf6
p812
V5832
p813
sV\u8f79
p814
V7386
p815
sV\u95fa
p816
V2575
p817
sV\u817d
p818
V7580
p819
sV\u5c7f
p820
V5176
p821
sV\u5501
p822
V4968
p823
sV\u4f83
p824
V5709
p825
sV\u928e
p826
V8638
p827
sV\u50a5
p828
V5746
p829
sV\u7080
p830
V7630
p831
sV\u9708
p832
V8612
p833
sV\u738b
p834
I7008
sV\u540a
p835
V2185
p836
sV\u9003
p837
V4451
p838
sV\u558f
p839
V6386
p840
sV\u960e
p841
V4954
p842
sV\u6291
p843
V5054
p844
sV\u8793
p845
V8291
p846
sV\u9c95
p847
V8660
p848
sV\u9514
p849
V7924
p850
sV\u5216
p851
V7530
p852
sV\u5e99
p853
V3577
p854
sV\u5b9b
p855
V4580
p856
sV\u5c1a
p857
V4148
p858
sV\u591c
p859
V5025
p860
sV\u6d9f
p861
V3316
p862
sV\u561e
p863
V6447
p864
sV\u9aa1
p865
V3466
p866
sV\u6b20
p867
V3923
p868
sV\u97a3
p869
V8723
p870
sV\u8822
p871
V2032
p872
sV\u9730
p873
V8617
p874
sV\u5728
p875
V5258
p876
sV\u7bab
p877
V8379
p878
sV\u7c2a
p879
V8402
p880
sV\u9cbd
p881
V8688
p882
sV\u8e2e
p883
V8558
p884
sV\u9ab1
p885
V8726
p886
sV\u67b3
p887
V7255
p888
sV\u9cb5
p889
V8682
p890
sV\u5d34
p891
V6543
p892
sV\u9954
p893
V8751
p894
sV\u8236
p895
V1816
p896
sV\u96b9
p897
V8631
p898
sV\u9534
p899
V7939
p900
sV\u82c1
p901
V6042
p902
sVa
p903
I8877
sV\u887f
p904
V8138
p905
sV\u9cc5
p906
V8690
p907
sV\u89c7
p908
V7472
p909
sV\u8748
p910
V8269
p911
sV\u53cb
p912
V5149
p913
sV\u6c4a
p914
V6766
p915
sV\u914c
p916
V5535
p917
sV\u85cf
p918
V1856
p919
sV\u5b50
p920
I5098
sV\u8fd3
p921
V6934
p922
sV\u9ee2
p923
V8781
p924
sV\u6cd5
p925
V2308
p926
sV\u9554
p927
V7957
p928
sV\u7ed9
p929
V2488
p930
sV\u7f58
p931
V7823
p932
sV\u8bdb
p933
V5479
p934
sV\u8c5a
p935
V7564
p936
sV\u8e44
p937
V4467
p938
sV\u5e5e
p939
V6505
p940
sV\u9ae1
p941
V8753
p942
sV\u7b60
p943
V8362
p944
sV\u4fe3
p945
V5722
p946
sV\u6862
p947
V7269
p948
sV\u94e5
p949
V7891
p950
sV\u5367
p951
V4652
p952
sV\u81e7
p953
V7416
p954
sV\u9c90
p955
V8656
p956
sV\u9ee9
p957
V8782
p958
sV\u5768
p959
V5971
p960
sV\u70ed
p961
V4040
p962
sV\u96ef
p963
V8609
p964
sV\u55ef
p965
V6437
p966
sV\u866e
p967
V8217
p968
sV\u8469
p969
V6166
p970
sV\u7ff3
p971
V8472
p972
sV\u8872
p973
V8136
p974
sV\u96f9
p975
V1702
p976
sV\u6f78
p977
V6890
p978
sV\u80fd
p979
V3660
p980
sV\u75ff
p981
V8084
p982
sV\u9694
p983
V2484
p984
sV\u9ac1
p985
V8733
p986
sV\u8703
p987
V8255
p988
sV\u5b40
p989
V7055
p990
sV\u8e09
p991
V8552
p992
sV\u9f88
p993
V8624
p994
sV\u5c97
p995
V2458
p996
sV\u948a
p997
V7840
p998
sV\u750f
p999
V7420
p1000
sV\u9c94
p1001
V8659
p1002
sV\u8892
p1003
V4427
p1004
sV\u6c15
p1005
V7513
p1006
sV\u6d94
p1007
V6825
p1008
sV\u7a96
p1009
V2949
p1010
sV\u8e7c
p1011
V8575
p1012
sV\u9c9a
p1013
V8661
p1014
sV\u781d
p1015
V7732
p1016
sV\u8e9e
p1017
V8583
p1018
sV\u8221
p1019
V8413
p1020
sV\u80a2
p1021
V5411
p1022
sV\u7425
p1023
V7190
p1024
sV\u8e29
p1025
V1840
p1026
sV\u94aa
p1027
V7854
p1028
sV-
p1029
I7028
sV\u66ae
p1030
V3626
p1031
sV\u7231
p1032
I2819
sV\u63b0
p1033
V7494
p1034
sV\u7435
p1035
V3793
p1036
sV\u9ab6
p1037
V8730
p1038
sV\u9e39
p1039
V8027
p1040
sV\u57b8
p1041
V5989
p1042
sV\u9b3b
p1043
V6987
p1044
sV\u74ba
p1045
V7223
p1046
sV\u953f
p1047
V7945
p1048
sV\u9ebe
p1049
V8766
p1050
sV\u8d21
p1051
V2517
p1052
sV\u7743
p1053
V7792
p1054
sV\u70c2
p1055
V3235
p1056
sV\u65c4
p1057
V7624
p1058
sV\u8e49
p1059
V8567
p1060
sV\u69ab
p1061
V7330
p1062
sV\u94ca
p1063
V7872
p1064
sV\u804d
p1065
V8187
p1066
sV\u69cc
p1067
V7319
p1068
sV\u76ce
p1069
V1627
p1070
sV\u5251
p1071
V2903
p1072
sV\u5bd0
p1073
V3534
p1074
sV\u8753
p1075
V8285
p1076
sV\u98d2
p1077
V7610
p1078
sV\u6841
p1079
V7276
p1080
sV\u8dcf
p1081
V8542
p1082
sV\u7ad6
p1083
V4290
p1084
sV\u5f25
p1085
V3554
p1086
sV\u54da
p1087
V6365
p1088
sV\u86de
p1089
V8250
p1090
sV\u53e0
p1091
V2194
p1092
sV\u7967
p1093
V7686
p1094
sV\u9ae6
p1095
V8754
p1096
sV\u4e69
p1097
V5632
p1098
sV\u94ea
p1099
V7894
p1100
sV\u956f
p1101
V7977
p1102
sV\u5bfc
p1103
V2128
p1104
sV\u9a71
p1105
V3993
p1106
sV\u83f0
p1107
V6152
p1108
sV\u5452
p1109
V6328
p1110
sV\u777f
p1111
V7803
p1112
sV\u5177
p1113
I1386
sV\u9ca8
p1114
V8672
p1115
sV\u9cd5
p1116
V8708
p1117
sV\u7b7b
p1118
V8364
p1119
sV\u91cc
p1120
I8895
sV\u887d
p1121
V8137
p1122
sV\u51fc
p1123
V5942
p1124
sV\u757f
p1125
V7160
p1126
sV\u9efe
p1127
V8628
p1128
sV\u9883
p1129
V8194
p1130
sV\u7f02
p1131
V7128
p1132
sV\u5e87
p1133
V1751
p1134
sV\u9506
p1135
V7915
p1136
sV\u848b
p1137
V2915
p1138
sV\u7b0a
p1139
V8341
p1140
sV\u760c
p1141
V8088
p1142
sV\u728f
p1143
V7490
p1144
sV\u610e
p1145
V6725
p1146
sV\u6410
p1147
V2004
p1148
sV\u7893
p1149
V7752
p1150
sV\u7f12
p1151
V7136
p1152
sV\u8214
p1153
V4482
p1154
sV\u9516
p1155
V7926
p1156
sV\u9185
p1157
V8512
p1158
sV\u949b
p1159
V7849
p1160
sV\u831a
p1161
V6065
p1162
sV\u7f9d
p1163
V8438
p1164
sV\u4e1c
p1165
I2866
sV\u791e
p1166
V7770
p1167
sV\u60a3
p1168
V2728
p1169
sV\u9f22
p1170
V8787
p1171
sV\u5224
p1172
V3748
p1173
sV\u6d5c
p1174
V6826
p1175
sV\u68b0
p1176
V4821
p1177
sV\u8028
p1178
V8181
p1179
sV\u6cab
p1180
V3613
p1181
sV\u87ad
p1182
V8304
p1183
sV\u992e
p1184
V8749
p1185
sV\u75b1
p1186
V8069
p1187
sV\u9f89
p1188
V8625
p1189
sV\u70b3
p1190
V1794
p1191
sV\u57b2
p1192
V5978
p1193
sV\u8234
p1194
V8423
p1195
sV\u6eb7
p1196
V6867
p1197
sV\u8d36
p1198
V7460
p1199
sV\u9038
p1200
V5061
p1201
sV\u6cbb
p1202
V5446
p1203
sV\u8fbd
p1204
V3341
p1205
sV\u828b
p1206
V5183
p1207
sV\u6eb4
p1208
V6869
p1209
sV\u85c1
p1210
V6227
p1211
sV\u7c40
p1212
V8406
p1213
sV\u7f42
p1214
V8331
p1215
sV\u8244
p1216
V8425
p1217
sV\u89c9
p1218
V3085
p1219
sV\u918d
p1220
V8514
p1221
sV\u9ccb
p1222
V8694
p1223
sV\u77cd
p1224
V5939
p1225
sV\u564c
p1226
V6465
p1227
sV\u714e
p1228
V2869
p1229
sV\u975b
p1230
V2169
p1231
sV\u54b8
p1232
V4744
p1233
sV\u82cb
p1234
V6040
p1235
sV\u835a
p1236
V2852
p1237
sV\u73e9
p1238
V7181
p1239
sV\u9adf
p1240
V8752
p1241
sV\u8f91
p1242
V2813
p1243
sV\u5f15
p1244
V5093
p1245
sV\u7762
p1246
V7801
p1247
sV\u9ee7
p1248
V8783
p1249
sV\u9566
p1250
V7970
p1251
sV\u6068
p1252
V2662
p1253
sV\u936a
p1254
V8642
p1255
sV\u4fed
p1256
V2883
p1257
sV\u9aef
p1258
V8755
p1259
sV\u65f1
p1260
V2621
p1261
sV\u66e9
p1262
V7457
p1263
sV\u50f3
p1264
V4359
p1265
sV\u6f72
p1266
V6891
p1267
sV\u4ef7
p1268
V2859
p1269
sV\u8d76
p1270
V2447
p1271
sV\u7078
p1272
V3036
p1273
sV\u4e1d
p1274
V4331
p1275
sV\u537a
p1276
V5865
p1277
sV\u567c
p1278
V6472
p1279
sV\u917e
p1280
V8507
p1281
sV\u9501
p1282
V4388
p1283
sV\u66b4
p1284
V1709
p1285
sV\u8803
p1286
V5789
p1287
sV\u8782
p1288
V8275
p1289
sV\u7284
p1290
V7487
p1291
sV\u638a
p1292
V6269
p1293
sV\u9f0d
p1294
V8630
p1295
sV\u4e8c
p1296
V2294
p1297
sV\u6753
p1298
V7228
p1299
sV\u7511
p1300
V7421
p1301
sV\u7490
p1302
V7220
p1303
sV\u9792
p1304
V8719
p1305
sV\u7315
p1306
V6608
p1307
sV\u72b6
p1308
V5520
p1309
sV\u6218
p1310
V5329
p1311
sV\u7119
p1312
V1726
p1313
sV\u726e
p1314
V7480
p1315
sV\u9cdf
p1316
V8714
p1317
sV\u8e9c
p1318
V8582
p1319
sV\u599e
p1320
V7004
p1321
sV\u8521
p1322
V1844
p1323
sV\u9ca0
p1324
V8665
p1325
sV\u7b25
p1326
V8351
p1327
sV\u9aa4
p1328
V5472
p1329
sV\u6da6
p1330
V4083
p1331
sV\u5929
p1332
I4592
sV\u60a8
p1333
V3690
p1334
sV\u7baa
p1335
V8376
p1336
sV\u972d
p1337
V8616
p1338
sV\u4eac
p1339
V3009
p1340
sV\u8d31
p1341
V2890
p1342
sV\u8eac
p1343
V2510
p1344
sV\u97b2
p1345
V8724
p1346
sV\u82b4
p1347
V6044
p1348
sV\u54c8
p1349
I4924
sV\u9139
p1350
V5924
p1351
sV\u60b8
p1352
V2834
p1353
sV\u543b
p1354
V4639
p1355
sV\u8bba
p1356
V3459
p1357
sV\u9f3d
p1358
V8792
p1359
sV\u96bc
p1360
V8632
p1361
sV\u8174
p1362
V7573
p1363
sV\u6893
p1364
V7287
p1365
sV\u83ca
p1366
V3053
p1367
sV\u9b45
p1368
V8740
p1369
sV\u72c4
p1370
V2150
p1371
sV\u8e47
p1372
V6931
p1373
sV\u5949
p1374
V2378
p1375
sV\u5c4b
p1376
V4661
p1377
sV\u93ca
p1378
V8643
p1379
sV\u4f4d
p1380
V4627
p1381
sV\u7ecc
p1382
V7109
p1383
sV\u824f
p1384
V8428
p1385
sV\u76f9
p1386
V7779
p1387
sV\u87d2
p1388
V8294
p1389
sV\u5ad4
p1390
V7041
p1391
sV\u55d6
p1392
V6418
p1393
sV\u94df
p1394
V7887
p1395
sV\u9edc
p1396
V8777
p1397
sV\u825f
p1398
V8430
p1399
sV\u89de
p1400
V8592
p1401
sV\u67e2
p1402
V7260
p1403
sV\u50a7
p1404
V5747
p1405
sV\u730a
p1406
V6605
p1407
sV\u54d0
p1408
V6349
p1409
sV\u9169
p1410
V8504
p1411
sV\u98e8
p1412
V8747
p1413
sV\u946b
p1414
V8646
p1415
sV\u8feb
p1416
V3840
p1417
sV\u9a6f
p1418
V4917
p1419
sV\u84f0
p1420
V6191
p1421
sV\u766f
p1422
V8119
p1423
sV\u57d2
p1424
V5988
p1425
sV\u9179
p1426
V8510
p1427
sV\u877d
p1428
V8277
p1429
sV\u727f
p1430
V7486
p1431
sV\u5c81
p1432
V4374
p1433
sV\u9500
p1434
V4790
p1435
sV\u5f87
p1436
V6563
p1437
sV\u6c06
p1438
V7511
p1439
sV\u69ad
p1440
V7331
p1441
sV\u758b
p1442
V8166
p1443
sV\u75d6
p1444
V8073
p1445
sV\u6edf
p1446
V6857
p1447
sV\u938f
p1448
V8644
p1449
sV\u5510
p1450
V4438
p1451
sV\u4e09
p1452
I7503
sV\u9c82
p1453
V8648
p1454
sV\u8314
p1455
V6067
p1456
sV\u4f97
p1457
V2217
p1458
sV\u7c16
p1459
V8393
p1460
sV\u9099
p1461
V5888
p1462
sV\u659b
p1463
V8590
p1464
sV\u9e9d
p1465
V8774
p1466
sV\u539f
p1467
V5213
p1468
sV\u6ca1
p1469
V3527
p1470
sV\u91a3
p1471
V8517
p1472
sV\u9cb0
p1473
V8677
p1474
sV\u82a5
p1475
V2970
p1476
sV\u7fa7
p1477
V8440
p1478
sV\u7c26
p1479
V8403
p1480
sV\u622a
p1481
V2956
p1482
sV\u4ead
p1483
V4504
p1484
sV\u9f2c
p1485
V8788
p1486
sV\u764c
p1487
V1609
p1488
sV\u5adc
p1489
V7049
p1490
sV\u9cb1
p1491
V8678
p1492
sV\u5530
p1493
V6407
p1494
sV\u4e32
p1495
V2014
p1496
sV\u9cbb
p1497
V8686
p1498
sV\u96bd
p1499
V8633
p1500
sV\u4f3c
p1501
V4338
p1502
sV\u8e31
p1503
V8566
p1504
sV\u5c34
p1505
V6247
p1506
sV\u7cc1
p1507
V8454
p1508
sV\u5e42
p1509
V3561
p1510
sV\u9ac5
p1511
V8735
p1512
sV\u94b7
p1513
V7862
p1514
sV\u88c9
p1515
V8144
p1516
sV\u4f36
p1517
V3370
p1518
sV\u4ecd
p1519
V4052
p1520
sV\u73cf
p1521
V7169
p1522
sV\u784e
p1523
V7742
p1524
sV\u54d1
p1525
V4938
p1526
sV\u8e52
p1527
V8571
p1528
sV\u5fd7
p1529
I8768
sV\u8e0a
p1530
V5127
p1531
sV\u9ab0
p1532
V8727
p1533
sV\u825a
p1534
V8429
p1535
sV\u66dd
p1536
V3856
p1537
sV\u83df
p1538
V6143
p1539
sV\u6ce1
p1540
V3761
p1541
sV\u677c
p1542
V7244
p1543
sV\u8662
p1544
V7529
p1545
sV\u5a67
p1546
V7026
p1547
sV\u5466
p1548
V6347
p1549
sV\u80e9
p1550
V7544
p1551
sV\u7968
p1552
I4072
sV\u8deb
p1553
V8528
p1554
sV\u86ed
p1555
V8246
p1556
sV\u786e
p1557
V4023
p1558
sV\u8169
p1559
V7578
p1560
sV\u94bf
p1561
V7868
p1562
sV\u70e8
p1563
V7639
p1564
sV\u6978
p1565
V7317
p1566
sV\u6e1d
p1567
V5169
p1568
sV\u973e
p1569
V8618
p1570
sV\u577c
p1571
V5969
p1572
sV\u8bff
p1573
V5835
p1574
sV\u887e
p1575
V8432
p1576
sV\u8401
p1577
V6129
p1578
sV\u9e82
p1579
V8768
p1580
sV\u8205
p1581
V3043
p1582
sV\u7f07
p1583
V7130
p1584
sV\u9486
p1585
V7837
p1586
sV\u9009
p1587
V4901
p1588
sV\u6e0d
p1589
V5553
p1590
sV\u9f8c
p1591
V8627
p1592
sV\u9b0f
p1593
V8761
p1594
sV\u8c11
p1595
V5842
p1596
sV\u6590
p1597
V7619
p1598
sV\u9e92
p1599
V8772
p1600
sV\u666f
p1601
V3016
p1602
sV\u889c
p1603
V4564
p1604
sV\u8019
p1605
V1650
p1606
sV\u9998
p1607
V5769
p1608
sV\u951b
p1609
V7928
p1610
sV\u8e1d
p1611
V8555
p1612
sV\u9b1f
p1613
V8763
p1614
sV\u8c21
p1615
V5853
p1616
sV\u75a0
p1617
V8061
p1618
sV\u6123
p1619
V6722
p1620
sV\u609a
p1621
V6704
p1622
sV\u5a25
p1623
V2280
p1624
sV\u8ba4
p1625
V4047
p1626
sV\u80f0
p1627
V5040
p1628
sV\u59a8
p1629
V2333
p1630
sV\u9cd0
p1631
V8705
p1632
sV\u81a3
p1633
V7589
p1634
sV\u632f
p1635
V5381
p1636
sV\u90ae
p1637
V5142
p1638
sV\u90d1
p1639
V5403
p1640
sV\u6fc9
p1641
V6901
p1642
sV\u63b4
p1643
V6266
p1644
sV\u9f37
p1645
V8791
p1646
sV\u9cb6
p1647
V8683
p1648
sV\u8839
p1649
V8328
p1650
sV\u9aba
p1651
V8731
p1652
sV\u4e3d
p1653
I8476
sV\u7acb
p1654
V3302
p1655
sV\u80be
p1656
V4186
p1657
sV\u7c41
p1658
V8405
p1659
sV\u9e21
p1660
V2806
p1661
sV\u6f47
p1662
V6876
p1663
sV\u9cc6
p1664
V8691
p1665
sV\u4fe9
p1666
V3309
p1667
sV\u754b
p1668
V7817
p1669
sV\u864d
p1670
V8214
p1671
sV\u5fcc
p1672
V2841
p1673
sV\u98ce
p1674
V2371
p1675
sV\u5c51
p1676
V4828
p1677
sV\u8f85
p1678
V2408
p1679
sV\u96d2
p1680
V8635
p1681
sV\u53d4
p1682
V4269
p1683
sV\u5757
p1684
I3404
sV\u94f8
p1685
V5493
p1686
sV\u575f
p1687
V2356
p1688
sV\u755b
p1689
V7819
p1690
sV\u507b
p1691
V5745
p1692
sV\u5c61
p1693
V3437
p1694
sV\u65e0
p1695
I1113
sV\u7ee2
p1696
V3078
p1697
sV\u54e6
p1698
I7372
sV\u8869
p1699
V8135
p1700
sV\u94d0
p1701
V7877
p1702
sV\u536f
p1703
V3514
p1704
sV\u68ee
p1705
V4113
p1706
sV\u65f0
p1707
V7426
p1708
sV\u86f2
p1709
V8245
p1710
sV\u8bf4
p1711
I1673
sV\u74f6
p1712
V3831
p1713
sV\u51f8
p1714
I3142
sV\u857b
p1715
V6214
p1716
sV\u7afa
p1717
V8335
p1718
sV\u6600
p1719
V7432
p1720
sV\u5185
p1721
V3658
p1722
sV\u9004
p1723
V6944
p1724
sV\u901a
p1725
I2244
sV\u9706
p1726
V8610
p1727
sV\u8389
p1728
V3282
p1729
sV\u57b4
p1730
V5981
p1731
sV\u9e8b
p1732
V8771
p1733
sV\u94ba
p1734
V7865
p1735
sV\u9791
p1736
V8718
p1737
sV\u4e10
p1738
V5604
p1739
sV\u8014
p1740
V8172
p1741
sV\u5ad6
p1742
V7046
p1743
sV\u6e58
p1744
V4770
p1745
sV\u5218
p1746
V3385
p1747
sV\u7e9b
p1748
V8478
p1749
sV\u611a
p1750
V5162
p1751
sV\u5edb
p1752
V6660
p1753
sV\u609f
p1754
V4682
p1755
sV\u631e
p1756
V4402
p1757
sV\u6fa1
p1758
V5272
p1759
sV\u9631
p1760
V5869
p1761
sV\u51a5
p1762
V5804
p1763
sV\u74a7
p1764
V7221
p1765
sV\u9e4b
p1766
V8037
p1767
sV\u8228
p1768
V8418
p1769
sV\u4eab
p1770
V4777
p1771
sV\u592a
p1772
V4411
p1773
sV\u8c2c
p1774
V3593
p1775
sV\u68af
p1776
I4741
sV\u878b
p1777
V8284
p1778
sV\u5ab3
p1779
V4717
p1780
sV\u8d32
p1781
V7458
p1782
sV\u54df
p1783
I5905
sV\u9cb7
p1784
V8684
p1785
sV\u7f36
p1786
V8330
p1787
sV\u83b9
p1788
V5108
p1789
sV\u575e
p1790
V4675
p1791
sV\u933e
p1792
V8641
p1793
sV\u8d42
p1794
V3424
p1795
sV\u8844
p1796
V8412
p1797
sV\u9cc7
p1798
V8692
p1799
sV\u6248
p1800
V7672
p1801
sV\u7ecb
p1802
V7108
p1803
sV\u914a
p1804
V8490
p1805
sV\u75cd
p1806
V8074
p1807
sV\u6fd1
p1808
V6894
p1809
sV\u8e39
p1810
V8563
p1811
sV\u5b8f
p1812
V2674
p1813
sV\u9756
p1814
I8106
sV\u71e5
p1815
V5279
p1816
sV\u9edb
p1817
V8776
p1818
sV\u795a
p1819
V7681
p1820
sV\u6c5c
p1821
V6765
p1822
sV\u98df
p1823
V4219
p1824
sV\u5fe1
p1825
V6671
p1826
sV\u82e3
p1827
V6036
p1828
sV\u9cba
p1829
V8685
p1830
sV\u89e5
p1831
V8601
p1832
sV\u6864
p1833
V7271
p1834
sV\u94e7
p1835
V7892
p1836
sV\u7110
p1837
V7641
p1838
sV\u53e9
p1839
V6321
p1840
sV\u8268
p1841
V8431
p1842
sV\u56eb
p1843
V6481
p1844
sV\u6b66
p1845
V4668
p1846
sV\u6014
p1847
V5390
p1848
sV\u4ff1
p1849
V3067
p1850
sV\u540e
p1851
V2683
p1852
sV\u9572
p1853
V7979
p1854
sV\u8d3f
p1855
V2763
p1856
sV\u6441
p1857
V6284
p1858
sV\u8f76
p1859
V7383
p1860
sV\u6bf9
p1861
V7508
p1862
sV\u717a
p1863
V7653
p1864
sV\u6108
p1865
V5190
p1866
sV\u7eeb
p1867
V7117
p1868
sV\u7b7e
p1869
V3909
p1870
sV\u5f01
p1871
V5945
p1872
sV\u916a
p1873
V3250
p1874
sV\u9c86
p1875
V8650
p1876
sV\u8f86
p1877
V3330
p1878
sV\u7a88
p1879
V8126
p1880
sV\u8016
p1881
V8173
p1882
sV\u8785
p1883
V8303
p1884
sV\u548c
p1885
V2645
p1886
sV\u6e90
p1887
V5220
p1888
sV\u6115
p1889
V6721
p1890
sV\u877c
p1891
V8287
p1892
sV\u7b19
p1893
V8347
p1894
sV\u951d
p1895
V7929
p1896
sV\u5c9c
p1897
V6517
p1898
sV\u7bb4
p1899
V8380
p1900
sV\u8dc4
p1901
V8536
p1902
sV\u7a23
p1903
V8653
p1904
sV\u535a
p1905
V1809
p1906
sV\u6670
p1907
V4690
p1908
sV\u869d
p1909
V8226
p1910
sV\u9e2b
p1911
V8020
p1912
sV\u91aa
p1913
V8518
p1914
sV\u952d
p1915
V2207
p1916
sV\u827f
p1917
V6021
p1918
sV\u98a5
p1919
V8212
p1920
sV\u82b8
p1921
V6031
p1922
sV\u963b
p1923
V5572
p1924
sV\u91ba
p1925
V8524
p1926
sV\u94bc
p1927
V7866
p1928
sV\u98a1
p1929
V8210
p1930
sV\u5243
p1931
V4474
p1932
sV\u996a
p1933
V6631
p1934
sV\u74f7
p1935
V2041
p1936
sV\u8c47
p1937
V8488
p1938
sV\u87c6
p1939
V8301
p1940
sV\u9b49
p1941
V8743
p1942
sV\u664b
p1943
V2990
p1944
sV\u81ca
p1945
V7593
p1946
sV\u54cc
p1947
V6363
p1948
sV\u4f58
p1949
V5760
p1950
sV\u8bce
p1951
V5816
p1952
sV\u9021
p1953
V6950
p1954
sV\u9955
p1955
V8750
p1956
sV\u8e69
p1957
V8531
p1958
sV\u82d8
p1959
V6060
p1960
sV\u96ce
p1961
V8634
p1962
sV\u8d5d
p1963
V5645
p1964
sV\u9cdc
p1965
V8712
p1966
sV\u96e0
p1967
V8637
p1968
sV\u5de2
p1969
V1918
p1970
sV\u5965
p1971
V1634
p1972
sV\u88e4
p1973
V3167
p1974
sV\u6e25
p1975
V6855
p1976
sV\u8fd0
p1977
V5243
p1978
sV\u9ca7
p1979
V8671
p1980
sV\u8026
p1981
V8178
p1982
sV\u8d6d
p1983
V8487
p1984
sV\u9753
p1985
V8606
p1986
sV\u7c7c
p1987
V8444
p1988
sV\u9c9b
p1989
V8662
p1990
sV\u74a9
p1991
V7219
p1992
sV\u55f2
p1993
V6439
p1994
sV\u74ff
p1995
V7419
p1996
sV\u5477
p1997
V6340
p1998
sV\u97f6
p1999
V4156
p2000
sV\u7b79
p2001
V1979
p2002
sV\u6c55
p2003
V4139
p2004
sV\u5e7b
p2005
V2735
p2006
sV\u84fc
p2007
V6204
p2008
sV\u507f
p2009
V1905
p2010
sV\u7bfe
p2011
V8390
p2012
sV\u8681
p2013
V5047
p2014
sV\u7701
p2015
V4201
p2016
sV\u610d
p2017
V7710
p2018
sV\u722a
p2019
V5506
p2020
sV\u8885
p2021
V8433
p2022
sV\u7a80
p2023
V8124
p2024
sV\u9b08
p2025
V8760
p2026
sV\u578b
p2027
V4845
p2028
sV\u680a
p2029
V7248
p2030
sV\u7a0e
p2031
V4316
p2032
sV\u6b93
p2033
V7371
p2034
sV\u6d82
p2035
V4531
p2036
sV\u7095
p2037
V3127
p2038
sV\u5914
p2039
V5771
p2040
sV\u6597
p2041
I1172
sV\u6e16
p2042
V6841
p2043
sV\u8299
p2044
V6029
p2045
sV\u68d2
p2046
V1684
p2047
sV\u8c2e
p2048
V5858
p2049
sV\u949d
p2050
V2259
p2051
sV\u4e58
p2052
V1943
p2053
sV\u719f
p2054
V4276
p2055
sV\u7a1e
p2056
V7993
p2057
sV\u9f20
p2058
V4283
p2059
sV\u87e0
p2060
V8320
p2061
sV\u78a5
p2062
V7760
p2063
sV\u6124
p2064
V2363
p2065
sV\u97ab
p2066
V8722
p2067
sV\u5786
p2068
V5968
p2069
sV\u552c
p2070
V2703
p2071
sV\u91af
p2072
V8521
p2073
sV\u55dc
p2074
V4240
p2075
sV\u86b1
p2076
V8238
p2077
sV\u6709
p2078
I1731
sV\u6c32
p2079
V7521
p2080
sV\u68b5
p2081
V7283
p2082
sV\u6934
p2083
V7318
p2084
sV\u82b9
p2085
V3959
p2086
sV\u7b38
p2087
V8345
p2088
sV\u56de
p2089
V2756
p2090
sV\u7cbd
p2091
V8453
p2092
sV\u8d3c
p2093
V5284
p2094
sV\u690d
p2095
V5418
p2096
sV\u718a
p2097
V4860
p2098
sV\u63b7
p2099
V5432
p2100
sV\u90a3
p2101
I3350
sV\u9b48
p2102
V8744
p2103
sV\u7ed8
p2104
V2770
p2105
sV\u9036
p2106
V6952
p2107
sV\u7ccd
p2108
V8457
p2109
sV\u954c
p2110
V7952
p2111
sV\u9ed1
p2112
V2658
p2113
sV\u5750
p2114
V5588
p2115
sV\u6452
p2116
V6280
p2117
sV\u88d5
p2118
V5203
p2119
sV\u6c0f
p2120
V4247
p2121
sV\u88df
p2122
V8436
p2123
sV\u6656
p2124
V7445
p2125
sV\u7b58
p2126
V8356
p2127
sV\u87db
p2128
V8318
p2129
sV\u54dd
p2130
V6370
p2131
sV\u755c
p2132
V4883
p2133
sV\u4f60
p2134
V3667
p2135
sV\u6d6a
p2136
V3243
p2137
sV\u88e5
p2138
V8148
p2139
sV\u8d67
p2140
V8486
p2141
sV\u9e66
p2142
V8048
p2143
sV\u9ebd
p2144
V8765
p2145
sV\u77eb
p2146
V2935
p2147
sV\u7ae6
p2148
V8121
p2149
sV\u54ed
p2150
I8803
sV\u5d6c
p2151
V6545
p2152
sV\u79ef
p2153
V2793
p2154
sV\u826e
p2155
V8462
p2156
sV\u58d1
p2157
V5954
p2158
sV\u5669
p2159
V5612
p2160
sV\u6bf3
p2161
V7505
p2162
sV\u5472
p2163
V6358
p2164
sV\u9174
p2165
V8509
p2166
sV\u65f7
p2167
V3185
p2168
sV\u5be8
p2169
V5315
p2170
sV\u9af9
p2171
V8759
p2172
sV\u9aed
p2173
V8758
p2174
sV\u5ffb
p2175
V4835
p2176
sV\u783e
p2177
V3289
p2178
sV\u94fd
p2179
V7911
p2180
sV\u4ff3
p2181
V5729
p2182
sV\u8c94
p2183
V8589
p2184
sV\u9f80
p2185
V8619
p2186
sV\u9093
p2187
V2143
p2188
sV\u8482
p2189
V2157
p2190
sV\u8005
p2191
I3926
sV\u8017
p2192
V2636
p2193
sV\u9e46
p2194
V8033
p2195
sV\u9f0b
p2196
V8629
p2197
sV\u6434
p2198
V6926
p2199
sV\u828e
p2200
V6026
p2201
sV\u8f90
p2202
V2388
p2203
sV\u9b13
p2204
V8762
p2205
sV\u9492
p2206
V2316
p2207
sV\u6015
p2208
I5182
sV\u6194
p2209
V6730
p2210
sV\u9517
p2211
V5364
p2212
sV\u6696
p2213
V3715
p2214
sV\u678b
p2215
V7242
p2216
sV\u7a7a
p2217
I9032
sV\u5f1b
p2218
V1958
p2219
sV\u789a
p2220
V7753
p2221
sV\u529e
p2222
V1676
p2223
sV\u6e21
p2224
V2241
p2225
sV\u77a0
p2226
V7810
p2227
sV\u9b23
p2228
V8764
p2229
sV\u9ca2
p2230
V8667
p2231
sV\u5792
p2232
V3261
p2233
sV\u5a29
p2234
V3568
p2235
sV\u92ae
p2236
V8639
p2237
sV\u5e31
p2238
V6492
p2239
sV\u77b0
p2240
V7811
p2241
sV\u8333
p2242
V6092
p2243
sV\u84b2
p2244
V3849
p2245
sV\u5835
p2246
V2234
p2247
sV\u9537
p2248
V7941
p2249
sV\u86b6
p2250
V8232
p2251
sV\u7eb5
p2252
V5561
p2253
sV\u643d
p2254
V1875
p2255
sV\u5abe
p2256
V7037
p2257
sV\u8e41
p2258
V8568
p2259
sV\u87c0
p2260
V8316
p2261
sV\u9b43
p2262
V8741
p2263
sV\u6845
p2264
V4606
p2265
sV\u51c4
p2266
V3864
p2267
sV\u7ede
p2268
V2942
p2269
sV\u7ec6
p2270
V4724
p2271
sV\u8bc8
p2272
V5309
p2273
sV\u78ca
p2274
I9490
sV\u5623
p2275
V6452
p2276
sV\u8e51
p2277
V8570
p2278
sV\u5fd0
p2279
V7694
p2280
sV\u5cd2
p2281
V6528
p2282
sV\u9557
p2283
V7959
p2284
sV\u5b64
p2285
V2534
p2286
sV\u53d8
p2287
V1768
p2288
sV\u4f5b
p2289
V2380
p2290
sV\u68da
p2291
V3779
p2292
sV\u85dc
p2293
V6228
p2294
sV\u895f
p2295
V2983
p2296
sV\u7ca4
p2297
V5233
p2298
sV\u6fe0
p2299
V6909
p2300
sV\u5363
p2301
V5653
p2302
sV\u64e2
p2303
V6310
p2304
sV\u9065
p2305
V5003
p2306
sV\u9567
p2307
V7971
p2308
sV\u9150
p2309
V8491
p2310
sV\u8f84
p2311
V7392
p2312
sV\u8be8
p2313
V5827
p2314
sV\u7cf8
p2315
V8473
p2316
sV\u80ea
p2317
V7545
p2318
sV\u646d
p2319
V6293
p2320
sV\u6dec
p2321
V2067
p2322
sV\u5ed2
p2323
V6658
p2324
sV\u62ee
p2325
V6255
p2326
sV\u67f0
p2327
V7245
p2328
sV\u5373
p2329
V2820
p2330
sV\u94f2
p2331
V1889
p2332
sV\u631f
p2333
V4814
p2334
sV\u7ea8
p2335
V7093
p2336
sV\u6243
p2337
V7671
p2338
sV\u6eb6
p2339
V4060
p2340
sV\u94d8
p2341
V7884
p2342
sV\u6dfc
p2343
V7721
p2344
sV\u917f
p2345
V3680
p2346
s.